target datalayout = "e-m:e-p270:32:32-p271:32:32-p272:64:64-i64:64-i128:128-f80:128-n8:16:32:64-S128"
target triple = "x86_64-pc-linux-gnu"

; Function Attrs: nounwind uwtable
define i32 @Pln_ManCompare3(ptr noundef %0, ptr noundef %1) #0 {
  %3 = alloca i32, align 4
  %4 = alloca ptr, align 8
  %5 = alloca ptr, align 8
  store ptr %0, ptr %4, align 8, !tbaa !68
  store ptr %1, ptr %5, align 8, !tbaa !68
  %6 = load ptr, ptr %4, align 8, !tbaa !68
  %7 = getelementptr inbounds i32, ptr %6, i64 0
  %8 = load i32, ptr %7, align 4, !tbaa !24
  %9 = load ptr, ptr %5, align 8, !tbaa !68
  %10 = getelementptr inbounds i32, ptr %9, i64 0
  %11 = load i32, ptr %10, align 4, !tbaa !24
  %12 = icmp slt i32 %8, %11
  br i1 %12, label %13, label %14

13:                                               ; preds = %2
  store i32 -1, ptr %3, align 4
  br label %42

14:                                               ; preds = %2
  %15 = load ptr, ptr %4, align 8, !tbaa !68
  %16 = getelementptr inbounds i32, ptr %15, i64 0
  %17 = load i32, ptr %16, align 4, !tbaa !24
  %18 = load ptr, ptr %5, align 8, !tbaa !68
  %19 = getelementptr inbounds i32, ptr %18, i64 0
  %20 = load i32, ptr %19, align 4, !tbaa !24
  %21 = icmp sgt i32 %17, %20
  br i1 %21, label %22, label %23

22:                                               ; preds = %14
  store i32 1, ptr %3, align 4
  br label %42

23:                                               ; preds = %14
  %24 = load ptr, ptr %4, align 8, !tbaa !68
  %25 = getelementptr inbounds i32, ptr %24, i64 1
  %26 = load i32, ptr %25, align 4, !tbaa !24
  %27 = load ptr, ptr %5, align 8, !tbaa !68
  %28 = getelementptr inbounds i32, ptr %27, i64 1
  %29 = load i32, ptr %28, align 4, !tbaa !24
  %30 = icmp slt i32 %26, %29
  br i1 %30, label %31, label %32

31:                                               ; preds = %23
  store i32 -1, ptr %3, align 4
  br label %42

32:                                               ; preds = %23
  %33 = load ptr, ptr %4, align 8, !tbaa !68
  %34 = getelementptr inbounds i32, ptr %33, i64 1
  %35 = load i32, ptr %34, align 4, !tbaa !24
  %36 = load ptr, ptr %5, align 8, !tbaa !68
  %37 = getelementptr inbounds i32, ptr %36, i64 1
  %38 = load i32, ptr %37, align 4, !tbaa !24
  %39 = icmp sgt i32 %35, %38
  br i1 %39, label %40, label %41

40:                                               ; preds = %32
  store i32 1, ptr %3, align 4
  br label %42

41:                                               ; preds = %32
  store i32 0, ptr %3, align 4
  br label %42

42:                                               ; preds = %41, %40, %31, %22, %13
  %43 = load i32, ptr %3, align 4
  ret i32 %43
}